; Function Attrs: nounwind uwtable
define ptr @Wln_ObjConstString(ptr noundef readonly captures(none) %0, i32 noundef %1) local_unnamed_addr #0 {
  %3 = getelementptr inbounds nuw i8, ptr %0, i64 152
  %4 = load ptr, ptr %3, align 8
  %5 = getelementptr i8, ptr %0, i64 88
  %.val = load ptr, ptr %5, align 8
  %6 = sext i32 %1 to i64
  %7 = getelementptr inbounds %struct.Wln_Vec_t_, ptr %.val, i64 %6, i32 1
  %8 = load i32, ptr %7, align 4
  %9 = icmp sgt i32 %8, 2
  %10 = getelementptr inbounds %struct.Wln_Vec_t_, ptr %.val, i64 %6, i32 2
  br i1 %9, label %11, label %Wln_ObjFanin0.exit

11:                                               ; preds = %2
  %12 = load ptr, ptr %10, align 8
  br label %Wln_ObjFanin0.exit

Wln_ObjFanin0.exit:                               ; preds = %2, %11
  %.in.i.i = phi ptr [ %12, %11 ], [ %10, %2 ]
  %13 = load i32, ptr %.in.i.i, align 4
  %14 = tail call ptr @Abc_NamStr(ptr noundef %4, i32 noundef %13) #12
  ret ptr %14
}